target datalayout = "e-m:e-p270:32:32-p271:32:32-p272:64:64-i64:64-i128:128-f80:128-n8:16:32:64-S128"
target triple = "x86_64-pc-linux-gnu"

%struct.Curl_easy = type { i32, i64, i64, ptr, %struct.Curl_llist_node, %struct.Curl_llist_node, i32, i32, %struct.Curl_message, %struct.easy_pollset, %struct.Names, ptr, ptr, ptr, ptr, %struct.SingleRequest, %struct.UserDefined, ptr, ptr, ptr, %struct.Progress, %struct.UrlState, ptr, %struct.PureInfo, %struct.curl_tlssessioninfo }
%struct.Curl_llist_node = type { ptr, ptr, ptr, ptr }
%struct.Curl_message = type { %struct.Curl_llist_node, %struct.CURLMsg }
%struct.CURLMsg = type { i32, ptr, %union.anon }
%union.anon = type { ptr }
%struct.easy_pollset = type { [5 x i32], i32, [5 x i8] }
%struct.Names = type { ptr, i32 }
%struct.SingleRequest = type <{ i64, i64, i64, i64, %struct.curltime, i32, i32, i32, i32, i64, i32, i32, i8, i8, [2 x i8], i32, ptr, ptr, %struct.bufq, i64, i64, ptr, ptr, %union.anon.0, ptr, i8, i32, [3 x i8] }>
%struct.curltime = type { i64, i32 }
%struct.bufq = type { ptr, ptr, ptr, ptr, i64, i64, i64, i32 }
%union.anon.0 = type { ptr }
%struct.UserDefined = type <{ ptr, ptr, ptr, ptr, ptr, ptr, i64, i64, i64, ptr, ptr, i64, ptr, ptr, ptr, ptr, ptr, ptr, ptr, ptr, ptr, ptr, ptr, ptr, ptr, ptr, ptr, ptr, ptr, ptr, ptr, ptr, ptr, ptr, ptr, i64, i64, i64, i64, i64, i64, i64, i64, i64, ptr, ptr, %struct.curl_mimepart, ptr, ptr, ptr, i64, %struct.ssl_config_data, %struct.ssl_config_data, ptr, i16, i8, i8, %struct.ssl_general_config, i32, i32, i32, [4 x i8], ptr, ptr, i64, i32, i8, i8, i8, i8, ptr, ptr, ptr, i32, [4 x i8], [74 x ptr], [8 x ptr], i32, i32, i32, [4 x i8], ptr, i32, [4 x i8], ptr, ptr, ptr, ptr, ptr, i32, i32, i32, i32, i32, i32, i32, i32, i64, ptr, ptr, i64, ptr, i64, ptr, ptr, ptr, ptr, i32, i16, i16, i16, i8, i8, i8, i8, i8, i8, i8, i8, i64, [6 x i8] }>
%struct.curl_mimepart = type { ptr, ptr, i32, i32, ptr, ptr, ptr, ptr, ptr, ptr, ptr, ptr, ptr, ptr, ptr, i64, %struct.mime_state, ptr, %struct.mime_encoder_state, i64 }
%struct.mime_state = type { i32, ptr, i64 }
%struct.mime_encoder_state = type { i64, i64, i64, [256 x i8] }
%struct.ssl_config_data = type { %struct.ssl_primary_config, i64, ptr, ptr, ptr, ptr, ptr, ptr, ptr, i16 }
%struct.ssl_primary_config = type { ptr, ptr, ptr, ptr, ptr, ptr, ptr, ptr, ptr, ptr, ptr, ptr, ptr, ptr, i8, i32, i8, i8 }
%struct.ssl_general_config = type { i32 }
%struct.Progress = type { i64, %struct.pgrs_dir, %struct.pgrs_dir, i64, i64, i32, i32, i64, i64, i64, i64, i64, i64, i64, i64, i64, %struct.curltime, %struct.curltime, %struct.curltime, %struct.curltime, %struct.curltime, [6 x i64], [6 x %struct.curltime], i32, i8 }
%struct.pgrs_dir = type { i64, i64, i64, %struct.pgrs_measure }
%struct.pgrs_measure = type { %struct.curltime, i64 }
%struct.UrlState = type { %struct.curltime, i64, i64, %struct.dynbuf, ptr, i64, ptr, i32, i32, i32, ptr, i32, i64, i32, ptr, %struct.digestdata, %struct.digestdata, %struct.auth, %struct.auth, %struct.Curl_async, ptr, i8, %struct.curltime, %struct.Curl_tree, %struct.Curl_llist, [15 x %struct.time_node], ptr, ptr, i64, i64, i64, i64, [32 x i8], i64, ptr, ptr, ptr, %struct.urlpieces, ptr, ptr, ptr, ptr, ptr, i64, %struct.dynbuf, %struct.Curl_llist, [2 x %struct.curl_header], ptr, i32, ptr, ptr, %struct.store_netrc, %struct.dynamically_allocated_data, i8, i8, i8, i8, i32 }
%struct.digestdata = type { ptr, ptr, ptr, ptr, ptr, ptr, i32, i8, i8 }
%struct.auth = type { i64, i64, i64, i8 }
%struct.Curl_async = type { ptr, ptr, ptr, ptr, i32, i32, i8 }
%struct.Curl_tree = type { ptr, ptr, ptr, ptr, %struct.curltime, ptr }
%struct.time_node = type { %struct.Curl_llist_node, %struct.curltime, i32 }
%struct.urlpieces = type { ptr, ptr, ptr, ptr, ptr, ptr, ptr, ptr }
%struct.dynbuf = type { ptr, i64, i64, i64 }
%struct.Curl_llist = type { ptr, ptr, ptr, i64 }
%struct.curl_header = type { ptr, ptr, i64, i64, i32, ptr }
%struct.store_netrc = type { %struct.dynbuf, ptr, i8 }
%struct.dynamically_allocated_data = type { ptr, ptr, ptr, ptr, ptr, ptr, ptr, ptr, ptr, ptr, ptr, ptr, ptr, ptr }
%struct.PureInfo = type { i32, i32, i32, i64, i64, i64, i64, i64, i64, i64, ptr, ptr, i64, i32, %struct.ip_quadruple, i32, ptr, i32, %struct.curl_certinfo, i32, i8 }
%struct.ip_quadruple = type { [46 x i8], [46 x i8], i32, i32 }
%struct.curl_certinfo = type { i32, ptr }
%struct.curl_tlssessioninfo = type { i32, ptr }

; Function Attrs: nounwind uwtable
define hidden i32 @Curl_addrinfo_callback(ptr noundef %0, i32 noundef %1, ptr noundef %2) #0 {
  %4 = alloca ptr, align 8
  %5 = alloca i32, align 4
  %6 = alloca ptr, align 8
  %7 = alloca ptr, align 8
  %8 = alloca i32, align 4
  store ptr %0, ptr %4, align 8, !tbaa !3
  store i32 %1, ptr %5, align 4, !tbaa !8
  store ptr %2, ptr %6, align 8, !tbaa !10
  call void @llvm.lifetime.start.p0(i64 8, ptr %7) #3
  store ptr null, ptr %7, align 8, !tbaa !12
  call void @llvm.lifetime.start.p0(i64 4, ptr %8) #3
  store i32 0, ptr %8, align 4, !tbaa !8
  %9 = load i32, ptr %5, align 4, !tbaa !8
  %10 = load ptr, ptr %4, align 8, !tbaa !3
  %11 = getelementptr inbounds nuw %struct.Curl_easy, ptr %10, i32 0, i32 21
  %12 = getelementptr inbounds nuw %struct.UrlState, ptr %11, i32 0, i32 19
  %13 = getelementptr inbounds nuw %struct.Curl_async, ptr %12, i32 0, i32 5
  store i32 %9, ptr %13, align 4, !tbaa !14
  %14 = load i32, ptr %5, align 4, !tbaa !8
  %15 = icmp eq i32 0, %14
  br i1 %15, label %16, label %56

16:                                               ; preds = %3
  %17 = load ptr, ptr %6, align 8, !tbaa !10
  %18 = icmp ne ptr %17, null
  br i1 %18, label %19, label %54

19:                                               ; preds = %16
  %20 = load ptr, ptr %4, align 8, !tbaa !3
  %21 = getelementptr inbounds nuw %struct.Curl_easy, ptr %20, i32 0, i32 13
  %22 = load ptr, ptr %21, align 8, !tbaa !81
  %23 = icmp ne ptr %22, null
  br i1 %23, label %24, label %27

24:                                               ; preds = %19
  %25 = load ptr, ptr %4, align 8, !tbaa !3
  %26 = call i32 @Curl_share_lock(ptr noundef %25, i32 noundef 3, i32 noundef 2)
  br label %27

27:                                               ; preds = %24, %19
  %28 = load ptr, ptr %4, align 8, !tbaa !3
  %29 = load ptr, ptr %6, align 8, !tbaa !10
  %30 = load ptr, ptr %4, align 8, !tbaa !3
  %31 = getelementptr inbounds nuw %struct.Curl_easy, ptr %30, i32 0, i32 21
  %32 = getelementptr inbounds nuw %struct.UrlState, ptr %31, i32 0, i32 19
  %33 = getelementptr inbounds nuw %struct.Curl_async, ptr %32, i32 0, i32 0
  %34 = load ptr, ptr %33, align 8, !tbaa !82
  %35 = load ptr, ptr %4, align 8, !tbaa !3
  %36 = getelementptr inbounds nuw %struct.Curl_easy, ptr %35, i32 0, i32 21
  %37 = getelementptr inbounds nuw %struct.UrlState, ptr %36, i32 0, i32 19
  %38 = getelementptr inbounds nuw %struct.Curl_async, ptr %37, i32 0, i32 4
  %39 = load i32, ptr %38, align 8, !tbaa !83
  %40 = call ptr @Curl_cache_addr(ptr noundef %28, ptr noundef %29, ptr noundef %34, i64 noundef 0, i32 noundef %39, i1 noundef zeroext false)
  store ptr %40, ptr %7, align 8, !tbaa !12
  %41 = load ptr, ptr %4, align 8, !tbaa !3
  %42 = getelementptr inbounds nuw %struct.Curl_easy, ptr %41, i32 0, i32 13
  %43 = load ptr, ptr %42, align 8, !tbaa !81
  %44 = icmp ne ptr %43, null
  br i1 %44, label %45, label %48

45:                                               ; preds = %27
  %46 = load ptr, ptr %4, align 8, !tbaa !3
  %47 = call i32 @Curl_share_unlock(ptr noundef %46, i32 noundef 3)
  br label %48

48:                                               ; preds = %45, %27
  %49 = load ptr, ptr %7, align 8, !tbaa !12
  %50 = icmp ne ptr %49, null
  br i1 %50, label %53, label %51

51:                                               ; preds = %48
  %52 = load ptr, ptr %6, align 8, !tbaa !10
  call void @Curl_freeaddrinfo(ptr noundef %52)
  store i32 27, ptr %8, align 4, !tbaa !8
  br label %53

53:                                               ; preds = %51, %48
  br label %55

54:                                               ; preds = %16
  store i32 27, ptr %8, align 4, !tbaa !8
  br label %55

55:                                               ; preds = %54, %53
  br label %56

56:                                               ; preds = %55, %3
  %57 = load ptr, ptr %7, align 8, !tbaa !12
  %58 = load ptr, ptr %4, align 8, !tbaa !3
  %59 = getelementptr inbounds nuw %struct.Curl_easy, ptr %58, i32 0, i32 21
  %60 = getelementptr inbounds nuw %struct.UrlState, ptr %59, i32 0, i32 19
  %61 = getelementptr inbounds nuw %struct.Curl_async, ptr %60, i32 0, i32 1
  store ptr %57, ptr %61, align 8, !tbaa !84
  %62 = load ptr, ptr %4, align 8, !tbaa !3
  %63 = getelementptr inbounds nuw %struct.Curl_easy, ptr %62, i32 0, i32 21
  %64 = getelementptr inbounds nuw %struct.UrlState, ptr %63, i32 0, i32 19
  %65 = getelementptr inbounds nuw %struct.Curl_async, ptr %64, i32 0, i32 6
  %66 = load i8, ptr %65, align 8
  %67 = and i8 %66, -2
  %68 = or i8 %67, 1
  store i8 %68, ptr %65, align 8
  %69 = load i32, ptr %8, align 4, !tbaa !8
  call void @llvm.lifetime.end.p0(i64 4, ptr %8) #3
  call void @llvm.lifetime.end.p0(i64 8, ptr %7) #3
  ret i32 %69
}