; Function Attrs: nounwind uwtable
define hidden range(i32 0, 28) i32 @Curl_addrinfo_callback(ptr noundef initializes((3484, 3488)) %0, i32 noundef %1, ptr noundef %2) local_unnamed_addr #0 {
  %4 = getelementptr inbounds nuw i8, ptr %0, i64 3448
  %5 = getelementptr inbounds nuw i8, ptr %0, i64 3484
  store i32 %1, ptr %5, align 4, !tbaa !3
  %6 = icmp eq i32 %1, 0
  br i1 %6, label %7, label %23

7:                                                ; preds = %3
  %.not = icmp eq ptr %2, null
  br i1 %.not, label %23, label %8

8:                                                ; preds = %7
  %9 = getelementptr inbounds nuw i8, ptr %0, i64 224
  %10 = load ptr, ptr %9, align 8, !tbaa !75
  %.not20 = icmp eq ptr %10, null
  br i1 %.not20, label %13, label %11

11:                                               ; preds = %8
  %12 = tail call i32 @Curl_share_lock(ptr noundef nonnull %0, i32 noundef 3, i32 noundef 2) #2
  br label %13

13:                                               ; preds = %11, %8
  %14 = load ptr, ptr %4, align 8, !tbaa !76
  %15 = getelementptr inbounds nuw i8, ptr %0, i64 3480
  %16 = load i32, ptr %15, align 8, !tbaa !77
  %17 = tail call ptr @Curl_cache_addr(ptr noundef nonnull %0, ptr noundef nonnull %2, ptr noundef %14, i64 noundef 0, i32 noundef %16, i1 noundef zeroext false) #2
  %18 = load ptr, ptr %9, align 8, !tbaa !75
  %.not21 = icmp eq ptr %18, null
  br i1 %.not21, label %21, label %19

19:                                               ; preds = %13
  %20 = tail call i32 @Curl_share_unlock(ptr noundef nonnull %0, i32 noundef 3) #2
  br label %21

21:                                               ; preds = %19, %13
  %.not22 = icmp eq ptr %17, null
  br i1 %.not22, label %22, label %23

22:                                               ; preds = %21
  tail call void @Curl_freeaddrinfo(ptr noundef nonnull %2) #2
  br label %23

23:                                               ; preds = %7, %22, %21, %3
  %.017 = phi ptr [ %17, %21 ], [ null, %22 ], [ null, %3 ], [ null, %7 ]
  %.0 = phi i32 [ 0, %21 ], [ 27, %22 ], [ 0, %3 ], [ 27, %7 ]
  %24 = getelementptr inbounds nuw i8, ptr %0, i64 3456
  store ptr %.017, ptr %24, align 8, !tbaa !78
  %25 = getelementptr inbounds nuw i8, ptr %0, i64 3488
  %26 = load i8, ptr %25, align 8
  %27 = or i8 %26, 1
  store i8 %27, ptr %25, align 8
  ret i32 %.0
}